target datalayout = "e-m:e-p270:32:32-p271:32:32-p272:64:64-i64:64-i128:128-f80:128-n8:16:32:64-S128"
target triple = "x86_64-pc-linux-gnu"

%struct.FFFilterGraph = type { %struct.AVFilterGraph, ptr, i32, i32, ptr, ptr, %struct.FFFrameQueueGlobal }
%struct.AVFilterGraph = type { ptr, ptr, i32, ptr, i32, i32, ptr, ptr, ptr }
%struct.FFFrameQueueGlobal = type { i8 }

@filtergraph_class = internal constant { ptr, ptr, ptr, i32, i32, i32, i32, ptr, ptr, ptr, ptr, i32, [4 x i8] } { ptr @.str.6, ptr @av_default_item_name, ptr @filtergraph_options, i32 3932772, i32 0, i32 0, i32 7, ptr null, ptr null, ptr null, ptr null, i32 0, [4 x i8] zeroinitializer }, align 8

; Function Attrs: nounwind uwtable
define ptr @avfilter_graph_alloc() #0 {
  %1 = alloca ptr, align 8
  %2 = alloca ptr, align 8
  %3 = alloca ptr, align 8
  %4 = alloca i32, align 4
  call void @llvm.lifetime.start.p0(i64 8, ptr %2) #11
  %5 = call noalias ptr @av_mallocz(i64 noundef 104)
  store ptr %5, ptr %2, align 8, !tbaa !4
  call void @llvm.lifetime.start.p0(i64 8, ptr %3) #11
  %6 = load ptr, ptr %2, align 8, !tbaa !4
  %7 = icmp ne ptr %6, null
  br i1 %7, label %9, label %8

8:                                                ; preds = %0
  store ptr null, ptr %1, align 8
  store i32 1, ptr %4, align 4
  br label %18

9:                                                ; preds = %0
  %10 = load ptr, ptr %2, align 8, !tbaa !4
  %11 = getelementptr inbounds nuw %struct.FFFilterGraph, ptr %10, i32 0, i32 0
  store ptr %11, ptr %3, align 8, !tbaa !9
  %12 = load ptr, ptr %3, align 8, !tbaa !9
  %13 = getelementptr inbounds nuw %struct.AVFilterGraph, ptr %12, i32 0, i32 0
  store ptr @filtergraph_class, ptr %13, align 8, !tbaa !11
  %14 = load ptr, ptr %3, align 8, !tbaa !9
  call void @av_opt_set_defaults(ptr noundef %14)
  %15 = load ptr, ptr %2, align 8, !tbaa !4
  %16 = getelementptr inbounds nuw %struct.FFFilterGraph, ptr %15, i32 0, i32 6
  call void @ff_framequeue_global_init(ptr noundef %16)
  %17 = load ptr, ptr %3, align 8, !tbaa !9
  store ptr %17, ptr %1, align 8
  store i32 1, ptr %4, align 4
  br label %18

18:                                               ; preds = %9, %8
  call void @llvm.lifetime.end.p0(i64 8, ptr %3) #11
  call void @llvm.lifetime.end.p0(i64 8, ptr %2) #11
  %19 = load ptr, ptr %1, align 8
  ret ptr %19
}