; Function Attrs: nounwind uwtable
define ptr @avfilter_graph_alloc() local_unnamed_addr #0 {
  %1 = tail call noalias ptr @av_mallocz(i64 noundef 104) #14
  %.not = icmp eq ptr %1, null
  br i1 %.not, label %4, label %2

2:                                                ; preds = %0
  store ptr @filtergraph_class, ptr %1, align 8, !tbaa !4
  tail call void @av_opt_set_defaults(ptr noundef nonnull %1) #14
  %3 = getelementptr inbounds nuw i8, ptr %1, i64 96
  tail call void @ff_framequeue_global_init(ptr noundef nonnull %3) #14
  br label %4

4:                                                ; preds = %0, %2
  ret ptr %1
}